target datalayout = "e-m:e-p270:32:32-p271:32:32-p272:64:64-i64:64-i128:128-f80:128-n8:16:32:64-S128"
target triple = "x86_64-pc-linux-gnu"

@.str.16 = private unnamed_addr constant [8 x i8] c"unknown\00", align 1
@.str.25 = private unnamed_addr constant [4 x i8] c"8ui\00", align 1
@.str.26 = private unnamed_addr constant [5 x i8] c"10ui\00", align 1
@.str.27 = private unnamed_addr constant [5 x i8] c"12ui\00", align 1
@.str.28 = private unnamed_addr constant [5 x i8] c"14ui\00", align 1
@.str.29 = private unnamed_addr constant [5 x i8] c"16ui\00", align 1
@.str.30 = private unnamed_addr constant [5 x i8] c"32ui\00", align 1
@.str.31 = private unnamed_addr constant [4 x i8] c"16f\00", align 1
@.str.32 = private unnamed_addr constant [4 x i8] c"32f\00", align 1

; Function Attrs: mustprogress nounwind uwtable
define noundef ptr @_ZN19OpenColorIO_v2_5dev16BitDepthToStringENS_8BitDepthE(i32 noundef %0) #4 {
  %2 = alloca ptr, align 8
  %3 = alloca i32, align 4
  store i32 %0, ptr %3, align 4, !tbaa !55
  %4 = load i32, ptr %3, align 4, !tbaa !55
  %5 = icmp eq i32 %4, 1
  br i1 %5, label %6, label %7

6:                                                ; preds = %1
  store ptr @.str.25, ptr %2, align 8
  br label %43

7:                                                ; preds = %1
  %8 = load i32, ptr %3, align 4, !tbaa !55
  %9 = icmp eq i32 %8, 2
  br i1 %9, label %10, label %11

10:                                               ; preds = %7
  store ptr @.str.26, ptr %2, align 8
  br label %43

11:                                               ; preds = %7
  %12 = load i32, ptr %3, align 4, !tbaa !55
  %13 = icmp eq i32 %12, 3
  br i1 %13, label %14, label %15

14:                                               ; preds = %11
  store ptr @.str.27, ptr %2, align 8
  br label %43

15:                                               ; preds = %11
  %16 = load i32, ptr %3, align 4, !tbaa !55
  %17 = icmp eq i32 %16, 4
  br i1 %17, label %18, label %19

18:                                               ; preds = %15
  store ptr @.str.28, ptr %2, align 8
  br label %43

19:                                               ; preds = %15
  %20 = load i32, ptr %3, align 4, !tbaa !55
  %21 = icmp eq i32 %20, 5
  br i1 %21, label %22, label %23

22:                                               ; preds = %19
  store ptr @.str.29, ptr %2, align 8
  br label %43

23:                                               ; preds = %19
  %24 = load i32, ptr %3, align 4, !tbaa !55
  %25 = icmp eq i32 %24, 6
  br i1 %25, label %26, label %27

26:                                               ; preds = %23
  store ptr @.str.30, ptr %2, align 8
  br label %43

27:                                               ; preds = %23
  %28 = load i32, ptr %3, align 4, !tbaa !55
  %29 = icmp eq i32 %28, 7
  br i1 %29, label %30, label %31

30:                                               ; preds = %27
  store ptr @.str.31, ptr %2, align 8
  br label %43

31:                                               ; preds = %27
  %32 = load i32, ptr %3, align 4, !tbaa !55
  %33 = icmp eq i32 %32, 8
  br i1 %33, label %34, label %35

34:                                               ; preds = %31
  store ptr @.str.32, ptr %2, align 8
  br label %43

35:                                               ; preds = %31
  br label %36

36:                                               ; preds = %35
  br label %37

37:                                               ; preds = %36
  br label %38

38:                                               ; preds = %37
  br label %39

39:                                               ; preds = %38
  br label %40

40:                                               ; preds = %39
  br label %41

41:                                               ; preds = %40
  br label %42

42:                                               ; preds = %41
  store ptr @.str.16, ptr %2, align 8
  br label %43

43:                                               ; preds = %42, %34, %30, %26, %22, %18, %14, %10, %6
  %44 = load ptr, ptr %2, align 8
  ret ptr %44
}